target datalayout = "e-m:e-p270:32:32-p271:32:32-p272:64:64-i64:64-i128:128-f80:128-n8:16:32:64-S128"
target triple = "x86_64-pc-linux-gnu"

%struct.ImVec2 = type { float, float }
%struct.ImGuiInputTextState = type <{ ptr, ptr, i32, i32, %struct.ImVector.34, %struct.ImVector.34, %struct.ImVector.34, i32, %struct.ImVec2, float, i8, i8, i8, i8, i32, i8, [3 x i8], i32, i32, [4 x i8] }>
%struct.ImVector.34 = type { i32, i32, ptr }
%"struct.ImStb::STB_TexteditState" = type { i32, i32, i32, i8, i32, i8, i8, i8, i8, i8, i8, i8, float, %"struct.ImStb::StbUndoState" }
%"struct.ImStb::StbUndoState" = type { [99 x %"struct.ImStb::StbUndoRecord"], [999 x i8], i16, i16, i32, i32 }
%"struct.ImStb::StbUndoRecord" = type { i32, i32, i32, i32 }

; Function Attrs: inlinehint mustprogress nounwind uwtable
define linkonce_odr dso_local noundef nonnull align 1 dereferenceable(1) ptr @_ZNK8ImVectorIcEixEi(ptr noundef nonnull align 8 dereferenceable(16) %0, i32 noundef %1) #2 comdat align 2 {
  %3 = alloca ptr, align 8
  %4 = alloca i32, align 4
  store ptr %0, ptr %3, align 8, !tbaa !505
  store i32 %1, ptr %4, align 4, !tbaa !9
  %5 = load ptr, ptr %3, align 8
  %6 = getelementptr inbounds nuw %struct.ImVector.34, ptr %5, i32 0, i32 2
  %7 = load ptr, ptr %6, align 8, !tbaa !509
  %8 = load i32, ptr %4, align 4, !tbaa !9
  %9 = sext i32 %8 to i64
  %10 = getelementptr inbounds i8, ptr %7, i64 %9
  ret ptr %10
}

; Function Attrs: mustprogress uwtable
define internal noundef signext i8 @_ZN5ImStbL20STB_TEXTEDIT_GETCHAREPK19ImGuiInputTextStatei(ptr noundef %0, i32 noundef %1) #8 {
  %3 = alloca ptr, align 8
  %4 = alloca i32, align 4
  store ptr %0, ptr %3, align 8, !tbaa !420
  store i32 %1, ptr %4, align 4, !tbaa !9
  %5 = load ptr, ptr %3, align 8, !tbaa !420
  %6 = getelementptr inbounds nuw %struct.ImGuiInputTextState, ptr %5, i32 0, i32 4
  %7 = load i32, ptr %4, align 4, !tbaa !9
  %8 = call noundef nonnull align 1 dereferenceable(1) ptr @_ZNK8ImVectorIcEixEi(ptr noundef nonnull align 8 dereferenceable(16) %6, i32 noundef %7)
  %9 = load i8, ptr %8, align 1, !tbaa !380
  ret i8 %9
}

; Function Attrs: mustprogress nounwind uwtable
define internal void @_ZN5ImStbL24STB_TEXTEDIT_DELETECHARSEP19ImGuiInputTextStateii(ptr noundef %0, i32 noundef %1, i32 noundef %2) #4 {
  %4 = alloca ptr, align 8
  %5 = alloca i32, align 4
  %6 = alloca i32, align 4
  %7 = alloca ptr, align 8
  %8 = alloca ptr, align 8
  %9 = alloca i8, align 1
  %10 = alloca i32, align 4
  store ptr %0, ptr %4, align 8, !tbaa !420
  store i32 %1, ptr %5, align 4, !tbaa !9
  store i32 %2, ptr %6, align 4, !tbaa !9
  call void @llvm.lifetime.start.p0(i64 8, ptr %7) #17
  %11 = load ptr, ptr %4, align 8, !tbaa !420
  %12 = getelementptr inbounds nuw %struct.ImGuiInputTextState, ptr %11, i32 0, i32 4
  %13 = getelementptr inbounds nuw %struct.ImVector.34, ptr %12, i32 0, i32 2
  %14 = load ptr, ptr %13, align 8, !tbaa !432
  %15 = load i32, ptr %5, align 4, !tbaa !9
  %16 = sext i32 %15 to i64
  %17 = getelementptr inbounds i8, ptr %14, i64 %16
  store ptr %17, ptr %7, align 8, !tbaa !4
  %18 = load ptr, ptr %4, align 8, !tbaa !420
  %19 = getelementptr inbounds nuw %struct.ImGuiInputTextState, ptr %18, i32 0, i32 12
  store i8 1, ptr %19, align 2, !tbaa !452
  %20 = load i32, ptr %6, align 4, !tbaa !9
  %21 = load ptr, ptr %4, align 8, !tbaa !420
  %22 = getelementptr inbounds nuw %struct.ImGuiInputTextState, ptr %21, i32 0, i32 3
  %23 = load i32, ptr %22, align 4, !tbaa !431
  %24 = sub nsw i32 %23, %20
  store i32 %24, ptr %22, align 4, !tbaa !431
  call void @llvm.lifetime.start.p0(i64 8, ptr %8) #17
  %25 = load ptr, ptr %4, align 8, !tbaa !420
  %26 = getelementptr inbounds nuw %struct.ImGuiInputTextState, ptr %25, i32 0, i32 4
  %27 = getelementptr inbounds nuw %struct.ImVector.34, ptr %26, i32 0, i32 2
  %28 = load ptr, ptr %27, align 8, !tbaa !432
  %29 = load i32, ptr %5, align 4, !tbaa !9
  %30 = sext i32 %29 to i64
  %31 = getelementptr inbounds i8, ptr %28, i64 %30
  %32 = load i32, ptr %6, align 4, !tbaa !9
  %33 = sext i32 %32 to i64
  %34 = getelementptr inbounds i8, ptr %31, i64 %33
  store ptr %34, ptr %8, align 8, !tbaa !4
  br label %35

35:                                               ; preds = %48, %3
  call void @llvm.lifetime.start.p0(i64 1, ptr %9) #17
  %36 = load ptr, ptr %8, align 8, !tbaa !4
  %37 = getelementptr inbounds nuw i8, ptr %36, i32 1
  store ptr %37, ptr %8, align 8, !tbaa !4
  %38 = load i8, ptr %36, align 1, !tbaa !380
  store i8 %38, ptr %9, align 1, !tbaa !380
  %39 = load i8, ptr %9, align 1, !tbaa !380
  %40 = icmp ne i8 %39, 0
  br i1 %40, label %42, label %41

41:                                               ; preds = %35
  store i32 3, ptr %10, align 4
  br label %46

42:                                               ; preds = %35
  %43 = load i8, ptr %9, align 1, !tbaa !380
  %44 = load ptr, ptr %7, align 8, !tbaa !4
  %45 = getelementptr inbounds nuw i8, ptr %44, i32 1
  store ptr %45, ptr %7, align 8, !tbaa !4
  store i8 %43, ptr %44, align 1, !tbaa !380
  store i32 0, ptr %10, align 4
  br label %46

46:                                               ; preds = %42, %41
  call void @llvm.lifetime.end.p0(i64 1, ptr %9) #17
  %47 = load i32, ptr %10, align 4
  switch i32 %47, label %51 [
    i32 0, label %48
    i32 3, label %49
  ]

48:                                               ; preds = %46
  br label %35, !llvm.loop !926

49:                                               ; preds = %46
  %50 = load ptr, ptr %7, align 8, !tbaa !4
  store i8 0, ptr %50, align 1, !tbaa !380
  call void @llvm.lifetime.end.p0(i64 8, ptr %8) #17
  call void @llvm.lifetime.end.p0(i64 8, ptr %7) #17
  ret void

51:                                               ; preds = %46
  unreachable
}

; Function Attrs: mustprogress uwtable
define internal void @_ZN5ImStbL24stb_text_makeundo_deleteEP19ImGuiInputTextStatePNS_17STB_TexteditStateEii(ptr noundef %0, ptr noundef %1, i32 noundef %2, i32 noundef %3) #8 {
  %5 = alloca ptr, align 8
  %6 = alloca ptr, align 8
  %7 = alloca i32, align 4
  %8 = alloca i32, align 4
  %9 = alloca i32, align 4
  %10 = alloca ptr, align 8
  store ptr %0, ptr %5, align 8, !tbaa !420
  store ptr %1, ptr %6, align 8, !tbaa !510
  store i32 %2, ptr %7, align 4, !tbaa !9
  store i32 %3, ptr %8, align 4, !tbaa !9
  call void @llvm.lifetime.start.p0(i64 4, ptr %9) #17
  call void @llvm.lifetime.start.p0(i64 8, ptr %10) #17
  %11 = load ptr, ptr %6, align 8, !tbaa !510
  %12 = getelementptr inbounds nuw %"struct.ImStb::STB_TexteditState", ptr %11, i32 0, i32 13
  %13 = load i32, ptr %7, align 4, !tbaa !9
  %14 = load i32, ptr %8, align 4, !tbaa !9
  %15 = call noundef ptr @_ZN5ImStbL19stb_text_createundoEPNS_12StbUndoStateEiii(ptr noundef %12, i32 noundef %13, i32 noundef %14, i32 noundef 0)
  store ptr %15, ptr %10, align 8, !tbaa !4
  %16 = load ptr, ptr %10, align 8, !tbaa !4
  %17 = icmp ne ptr %16, null
  br i1 %17, label %18, label %37

18:                                               ; preds = %4
  store i32 0, ptr %9, align 4, !tbaa !9
  br label %19

19:                                               ; preds = %33, %18
  %20 = load i32, ptr %9, align 4, !tbaa !9
  %21 = load i32, ptr %8, align 4, !tbaa !9
  %22 = icmp slt i32 %20, %21
  br i1 %22, label %23, label %36

23:                                               ; preds = %19
  %24 = load ptr, ptr %5, align 8, !tbaa !420
  %25 = load i32, ptr %7, align 4, !tbaa !9
  %26 = load i32, ptr %9, align 4, !tbaa !9
  %27 = add nsw i32 %25, %26
  %28 = call noundef signext i8 @_ZN5ImStbL20STB_TEXTEDIT_GETCHAREPK19ImGuiInputTextStatei(ptr noundef %24, i32 noundef %27)
  %29 = load ptr, ptr %10, align 8, !tbaa !4
  %30 = load i32, ptr %9, align 4, !tbaa !9
  %31 = sext i32 %30 to i64
  %32 = getelementptr inbounds i8, ptr %29, i64 %31
  store i8 %28, ptr %32, align 1, !tbaa !380
  br label %33

33:                                               ; preds = %23
  %34 = load i32, ptr %9, align 4, !tbaa !9
  %35 = add nsw i32 %34, 1
  store i32 %35, ptr %9, align 4, !tbaa !9
  br label %19, !llvm.loop !928

36:                                               ; preds = %19
  br label %37

37:                                               ; preds = %36, %4
  call void @llvm.lifetime.end.p0(i64 8, ptr %10) #17
  call void @llvm.lifetime.end.p0(i64 4, ptr %9) #17
  ret void
}

; Function Attrs: mustprogress uwtable
define internal void @_ZN5ImStbL19stb_textedit_deleteEP19ImGuiInputTextStatePNS_17STB_TexteditStateEii(ptr noundef %0, ptr noundef %1, i32 noundef %2, i32 noundef %3) #8 {
  %5 = alloca ptr, align 8
  %6 = alloca ptr, align 8
  %7 = alloca i32, align 4
  %8 = alloca i32, align 4
  store ptr %0, ptr %5, align 8, !tbaa !420
  store ptr %1, ptr %6, align 8, !tbaa !510
  store i32 %2, ptr %7, align 4, !tbaa !9
  store i32 %3, ptr %8, align 4, !tbaa !9
  %9 = load ptr, ptr %5, align 8, !tbaa !420
  %10 = load ptr, ptr %6, align 8, !tbaa !510
  %11 = load i32, ptr %7, align 4, !tbaa !9
  %12 = load i32, ptr %8, align 4, !tbaa !9
  call void @_ZN5ImStbL24stb_text_makeundo_deleteEP19ImGuiInputTextStatePNS_17STB_TexteditStateEii(ptr noundef %9, ptr noundef %10, i32 noundef %11, i32 noundef %12)
  %13 = load ptr, ptr %5, align 8, !tbaa !420
  %14 = load i32, ptr %7, align 4, !tbaa !9
  %15 = load i32, ptr %8, align 4, !tbaa !9
  call void @_ZN5ImStbL24STB_TEXTEDIT_DELETECHARSEP19ImGuiInputTextStateii(ptr noundef %13, i32 noundef %14, i32 noundef %15)
  %16 = load ptr, ptr %6, align 8, !tbaa !510
  %17 = getelementptr inbounds nuw %"struct.ImStb::STB_TexteditState", ptr %16, i32 0, i32 7
  store i8 0, ptr %17, align 2, !tbaa !511
  ret void
}