; Function Attrs: mustprogress nofree norecurse nosync nounwind memory(readwrite, inaccessiblemem: write) uwtable
define internal fastcc void @_ZN5ImStbL19stb_textedit_deleteEP19ImGuiInputTextStatePNS_17STB_TexteditStateEii(ptr noundef captures(none) %0, ptr noundef captures(address) initializes((2618, 2620), (2624, 2628)) %1, i32 noundef %2, i32 noundef %3) unnamed_addr #29 {
  %5 = getelementptr inbounds nuw i8, ptr %1, i64 32
  %6 = tail call fastcc noundef ptr @_ZN5ImStbL19stb_text_createundoEPNS_12StbUndoStateEiii(ptr noundef nonnull %5, i32 noundef %2, i32 noundef %3, i32 noundef 0)
  %.not.i = icmp ne ptr %6, null
  %7 = icmp sgt i32 %3, 0
  %or.cond.i = and i1 %7, %.not.i
  br i1 %or.cond.i, label %.lr.ph.i, label %._ZN5ImStbL24stb_text_makeundo_deleteEP19ImGuiInputTextStatePNS_17STB_TexteditStateEii.exit_crit_edge

._ZN5ImStbL24stb_text_makeundo_deleteEP19ImGuiInputTextStatePNS_17STB_TexteditStateEii.exit_crit_edge: ; preds = %4
  %.pre = sext i32 %2 to i64
  br label %_ZN5ImStbL24stb_text_makeundo_deleteEP19ImGuiInputTextStatePNS_17STB_TexteditStateEii.exit

.lr.ph.i:                                         ; preds = %4
  %8 = getelementptr i8, ptr %0, i64 32
  %9 = sext i32 %2 to i64
  %wide.trip.count.i = zext nneg i32 %3 to i64
  br label %10

10:                                               ; preds = %10, %.lr.ph.i
  %indvars.iv.i = phi i64 [ 0, %.lr.ph.i ], [ %indvars.iv.next.i, %10 ]
  %.val.i = load ptr, ptr %8, align 8, !tbaa !382
  %11 = getelementptr i8, ptr %.val.i, i64 %indvars.iv.i
  %12 = getelementptr i8, ptr %11, i64 %9
  %13 = load i8, ptr %12, align 1, !tbaa !338
  %14 = getelementptr inbounds nuw i8, ptr %6, i64 %indvars.iv.i
  store i8 %13, ptr %14, align 1, !tbaa !338
  %indvars.iv.next.i = add nuw nsw i64 %indvars.iv.i, 1
  %exitcond.not.i = icmp eq i64 %indvars.iv.next.i, %wide.trip.count.i
  br i1 %exitcond.not.i, label %_ZN5ImStbL24stb_text_makeundo_deleteEP19ImGuiInputTextStatePNS_17STB_TexteditStateEii.exit, label %10, !llvm.loop !492

_ZN5ImStbL24stb_text_makeundo_deleteEP19ImGuiInputTextStatePNS_17STB_TexteditStateEii.exit: ; preds = %10, %._ZN5ImStbL24stb_text_makeundo_deleteEP19ImGuiInputTextStatePNS_17STB_TexteditStateEii.exit_crit_edge
  %.pre-phi = phi i64 [ %.pre, %._ZN5ImStbL24stb_text_makeundo_deleteEP19ImGuiInputTextStatePNS_17STB_TexteditStateEii.exit_crit_edge ], [ %9, %10 ]
  %15 = getelementptr inbounds nuw i8, ptr %0, i64 32
  %16 = load ptr, ptr %15, align 8, !tbaa !385
  %17 = getelementptr inbounds i8, ptr %16, i64 %.pre-phi
  %18 = getelementptr inbounds nuw i8, ptr %0, i64 90
  store i8 1, ptr %18, align 2, !tbaa !412
  %19 = getelementptr inbounds nuw i8, ptr %0, i64 20
  %20 = load i32, ptr %19, align 4, !tbaa !384
  %21 = sub nsw i32 %20, %3
  store i32 %21, ptr %19, align 4, !tbaa !384
  %22 = sext i32 %3 to i64
  %23 = getelementptr inbounds i8, ptr %17, i64 %22
  %24 = load i8, ptr %23, align 1, !tbaa !338
  %.not20.i = icmp eq i8 %24, 0
  br i1 %.not20.i, label %_ZN5ImStbL24STB_TEXTEDIT_DELETECHARSEP19ImGuiInputTextStateii.exit, label %.lr.ph.i7

.lr.ph.i7:                                        ; preds = %_ZN5ImStbL24stb_text_makeundo_deleteEP19ImGuiInputTextStatePNS_17STB_TexteditStateEii.exit, %.lr.ph.i7
  %25 = phi i8 [ %28, %.lr.ph.i7 ], [ %24, %_ZN5ImStbL24stb_text_makeundo_deleteEP19ImGuiInputTextStatePNS_17STB_TexteditStateEii.exit ]
  %.01322.i = phi ptr [ %27, %.lr.ph.i7 ], [ %17, %_ZN5ImStbL24stb_text_makeundo_deleteEP19ImGuiInputTextStatePNS_17STB_TexteditStateEii.exit ]
  %.01421.i = phi ptr [ %26, %.lr.ph.i7 ], [ %23, %_ZN5ImStbL24stb_text_makeundo_deleteEP19ImGuiInputTextStatePNS_17STB_TexteditStateEii.exit ]
  %26 = getelementptr inbounds nuw i8, ptr %.01421.i, i64 1
  %27 = getelementptr inbounds nuw i8, ptr %.01322.i, i64 1
  store i8 %25, ptr %.01322.i, align 1, !tbaa !338
  %28 = load i8, ptr %26, align 1, !tbaa !338
  %.not.i8 = icmp eq i8 %28, 0
  br i1 %.not.i8, label %_ZN5ImStbL24STB_TEXTEDIT_DELETECHARSEP19ImGuiInputTextStateii.exit, label %.lr.ph.i7

_ZN5ImStbL24STB_TEXTEDIT_DELETECHARSEP19ImGuiInputTextStateii.exit: ; preds = %.lr.ph.i7, %_ZN5ImStbL24stb_text_makeundo_deleteEP19ImGuiInputTextStatePNS_17STB_TexteditStateEii.exit
  %.013.lcssa.i = phi ptr [ %17, %_ZN5ImStbL24stb_text_makeundo_deleteEP19ImGuiInputTextStatePNS_17STB_TexteditStateEii.exit ], [ %27, %.lr.ph.i7 ]
  store i8 0, ptr %.013.lcssa.i, align 1, !tbaa !338
  %29 = getelementptr inbounds nuw i8, ptr %1, i64 22
  store i8 0, ptr %29, align 2, !tbaa !393
  ret void
}